ccopy_reg
_reconstructor
p0
(cpandas.core.frame
DataFrame
p1
c__builtin__
object
p2
Ntp3
Rp4
(dp5
S'_metadata'
p6
(lp7
sS'_typ'
p8
S'dataframe'
p9
sS'_data'
p10
g0
(cpandas.core.internals
BlockManager
p11
g2
Ntp12
Rp13
((lp14
cpandas.core.index
_new_Index
p15
(cpandas.core.index
Index
p16
(dp17
S'data'
p18
cnumpy.core.multiarray
_reconstruct
p19
(cnumpy
ndarray
p20
(I0
tp21
S'b'
p22
tp23
Rp24
(I1
(L1L
tp25
cnumpy
dtype
p26
(S'O8'
p27
I0
I1
tp28
Rp29
(I3
S'|'
p30
NNNI-1
I-1
I63
tp31
bI00
(lp32
Vbtc_usd
p33
atp34
bsS'name'
p35
Nstp36
Rp37
ag15
(g16
(dp38
g18
g19
(g20
(I0
tp39
g22
tp40
Rp41
(I1
(L2L
tp42
g29
I00
(lp43
Vasks
p44
aVbids
p45
atp46
bsg35
Nstp47
Rp48
a(lp49
g19
(g20
(I0
tp50
g22
tp51
Rp52
(I1
(L1L
L2L
tp53
g29
I00
(lp54
(lp55
(lp56
F432.141
aF0.011038
aa(lp57
F432.237
aF0.0396626
aa(lp58
F432.238
aF0.011040000000000001
aa(lp59
F432.438
aF0.30000000000000004
aa(lp60
F432.602
aF0.011045
aa(lp61
F432.609
aF3.731
aa(lp62
F432.628
aF0.4
aa(lp63
F432.64
aF5.5280000000000005
aa(lp64
F432.75
aF1.58
aa(lp65
F432.76
aF10.4
aa(lp66
F432.818
aF0.5
aa(lp67
F432.83
aF1.02
aa(lp68
F432.88
aF13.5068
aa(lp69
F432.969
aF3.981
aa(lp70
F432.998
aF0.028
aa(lp71
I433
aF60.43909078
aa(lp72
F433.008
aF0.6000000000000001
aa(lp73
F433.095
aF0.011033999999999999
aa(lp74
F433.294
aF3.402
aa(lp75
F433.632
aF3.338
aa(lp76
F433.84
aF0.01000001
aa(lp77
F433.865
aF0.01000001
aa(lp78
F433.883
aF0.0313
aa(lp79
F433.89
aF0.01000001
aa(lp80
F433.915
aF0.01000001
aa(lp81
F433.94
aF0.01000001
aa(lp82
F433.946
aF0.011054999999999999
aa(lp83
F433.962
aF0.011035999999999999
aa(lp84
F433.965
aF0.01000001
aa(lp85
F433.99
aF0.25100001
aa(lp86
F433.997
aF0.056
aa(lp87
F433.998
aF3.862
aa(lp88
I434
aF5.55875015
aa(lp89
F434.015
aF0.01000001
aa(lp90
F434.04
aF0.01000001
aa(lp91
F434.065
aF0.01000001
aa(lp92
F434.069
aF0.011035
aa(lp93
F434.07
aF1.017
aa(lp94
F434.076
aF0.011045
aa(lp95
F434.091
aF0.02104001
aa(lp96
F434.116
aF0.01000001
aa(lp97
F434.131
aF0.01
aa(lp98
F434.141
aF0.01000001
aa(lp99
F434.156
aF0.011042
aa(lp100
F434.166
aF0.01000001
aa(lp101
F434.169
aF0.022088999999999998
aa(lp102
F434.191
aF0.02103801
aa(lp103
F434.216
aF0.01000001
aa(lp104
F434.241
aF0.01000001
aa(lp105
F434.253
aF0.011053
aa(lp106
F434.266
aF0.01000001
aa(lp107
F434.291
aF0.01000001
aa(lp108
F434.316
aF0.01000001
aa(lp109
F434.342
aF0.01000001
aa(lp110
F434.344
aF0.112
aa(lp111
F434.345
aF3.424
aa(lp112
F434.367
aF0.01000001
aa(lp113
F434.368
aF0.612
aa(lp114
F434.37
aF0.0304
aa(lp115
F434.392
aF0.01000001
aa(lp116
F434.417
aF0.01000001
aa(lp117
F434.442
aF0.01000001
aa(lp118
F434.467
aF0.020000010000000002
aa(lp119
F434.476
aF0.224
aa(lp120
F434.491
aF0.01105
aa(lp121
F434.492
aF0.01000001
aa(lp122
F434.502
aF0.011033999999999999
aa(lp123
F434.506
aF0.01105
aa(lp124
F434.51
aF0.011045
aa(lp125
F434.517
aF0.01000001
aa(lp126
F434.529
aF0.011039
aa(lp127
F434.539
aF0.011042
aa(lp128
F434.541
aF0.011042
aa(lp129
F434.542
aF0.01000001
aa(lp130
F434.55
aF2.717
aa(lp131
F434.567
aF0.01000001
aa(lp132
F434.571
aF0.013054999999999999
aa(lp133
F434.593
aF0.01000001
aa(lp134
F434.602
aF0.01105
aa(lp135
F434.61
aF0.1
aa(lp136
F434.618
aF0.01000001
aa(lp137
F434.631
aF0.011046
aa(lp138
F434.643
aF0.01000001
aa(lp139
F434.649
aF0.011045
aa(lp140
F434.652
aF0.013054999999999999
aa(lp141
F434.655
aF0.18226377
aa(lp142
F434.661
aF0.011035
aa(lp143
F434.665
aF0.448
aa(lp144
F434.666
aF0.011038
aa(lp145
F434.668
aF0.01000001
aa(lp146
F434.669
aF5.0435843
aa(lp147
F434.67
aF4.62145254
aa(lp148
F434.671
aF1.6214135
aa(lp149
F434.684
aF0.011045
aa(lp150
F434.692
aF0.011040000000000001
aa(lp151
F434.693
aF0.01000001
aa(lp152
F434.701
aF0.011042
aa(lp153
F434.703
aF3.229042
aa(lp154
F434.714
aF0.011053
aa(lp155
F434.715
aF0.013054999999999999
aa(lp156
F434.718
aF0.01000001
aa(lp157
F434.727
aF0.01105
aa(lp158
F434.73
aF0.005203
aa(lp159
F434.736
aF0.011035
aa(lp160
F434.743
aF0.01000001
aa(lp161
F434.744
aF2.70609855
aa(lp162
F434.747
aF0.011038
aa(lp163
F434.749
aF0.011045
aa(lp164
F434.757
aF0.024093999999999997
aa(lp165
F434.768
aF0.01000001
aa(lp166
F434.775
aF0.011045
aa(lp167
F434.784
aF0.022091
aa(lp168
F434.793
aF0.01000001
aa(lp169
F434.8
aF0.052000000000000005
aa(lp170
F434.814
aF0.022074
aa(lp171
F434.818
aF0.01000001
aa(lp172
F434.819
aF0.011035
aa(lp173
F434.822
aF0.013054999999999999
aa(lp174
F434.827
aF2.71435141
aa(lp175
F434.844
aF0.01000001
aa(lp176
F434.848
aF2.85390377
aa(lp177
F434.853
aF0.013054999999999999
aa(lp178
F434.865
aF0.011035999999999999
aa(lp179
F434.869
aF0.01000001
aa(lp180
F434.88
aF0.013054999999999999
aa(lp181
F434.886
aF3.36702646
aa(lp182
F434.887
aF0.011053
aa(lp183
F434.893
aF0.011033999999999999
aa(lp184
F434.894
aF0.01000001
aa(lp185
F434.911
aF0.011039
aa(lp186
F434.919
aF0.01000001
aa(lp187
F434.94
aF0.011039
aa(lp188
F434.942
aF0.48935383
aa(lp189
F434.944
aF0.01000001
aa(lp190
F434.954
aF0.011053
aa(lp191
F434.957
aF0.013054999999999999
aa(lp192
F434.962
aF0.011045
aa(lp193
F434.969
aF0.01000001
aa(lp194
F434.991
aF0.3024
aa(lp195
F434.993
aF0.011018
aa(lp196
F434.994
aF0.01000001
aa(lp197
F434.995
aF2.27621928
aa(lp198
F434.997
aF17.25
aa(lp199
F434.998
aF0.011045
aa(lp200
I435
aF26.1625
aa(lp201
F435.001
aF0.011045
aa(lp202
F435.01
aF0.011053
aa(lp203
F435.014
aF0.011035999999999999
aa(lp204
F435.019
aF0.01000001
aa(lp205
F435.02
aF0.022074
aaa(lp206
(lp207
F431.947
aF0.1903374
aa(lp208
F431.946
aF0.011045
aa(lp209
F431.867
aF0.013054999999999999
aa(lp210
F431.851
aF0.011035
aa(lp211
F431.848
aF0.0304
aa(lp212
F431.825
aF0.011039
aa(lp213
F431.788
aF0.022084
aa(lp214
F431.746
aF0.30000000000000004
aa(lp215
F431.734
aF0.011053
aa(lp216
F431.701
aF0.05
aa(lp217
F431.662
aF0.011094
aa(lp218
F431.63
aF0.01109646
aa(lp219
F431.613
aF0.022081999999999997
aa(lp220
F431.601
aF0.010400000000000001
aa(lp221
F431.585
aF0.011045
aa(lp222
F431.577
aF0.01110259
aa(lp223
F431.575
aF0.01109154
aa(lp224
F431.567
aF0.304
aa(lp225
F431.556
aF0.4
aa(lp226
F431.473
aF0.011108380000000001
aa(lp227
F431.46
aF0.01109033
aa(lp228
F431.416
aF0.01109109
aa(lp229
F431.41
aF0.01067324
aa(lp230
F431.366
aF0.5
aa(lp231
F431.326
aF0.01108752
aa(lp232
F431.27
aF0.010400000000000001
aa(lp233
F431.269
aF0.010400000000000001
aa(lp234
F431.235
aF0.01109481
aa(lp235
F431.176
aF0.6000000000000001
aa(lp236
F431.08
aF0.01071416
aa(lp237
F431.077
aF0.011108380000000001
aa(lp238
F431.075
aF0.01002005
aa(lp239
F431.05
aF0.01002005
aa(lp240
F431.042
aF0.013054999999999999
aa(lp241
F431.025
aF0.01002005
aa(lp242
I431
aF0.01002005
aa(lp243
F430.988
aF0.01109646
aa(lp244
F430.975
aF0.01002005
aa(lp245
F430.966
aF0.01114119
aa(lp246
F430.954
aF0.01108752
aa(lp247
F430.95
aF0.01002005
aa(lp248
F430.943
aF0.01109154
aa(lp249
F430.925
aF0.02111114
aa(lp250
F430.9
aF0.01002005
aa(lp251
F430.878
aF0.011109280000000001
aa(lp252
F430.875
aF0.01002005
aa(lp253
F430.85
aF0.01002005
aa(lp254
F430.848
aF0.01109958
aa(lp255
F430.825
aF0.01002005
aa(lp256
F430.809
aF0.010021
aa(lp257
F430.8
aF0.01002005
aa(lp258
F430.775
aF0.01002005
aa(lp259
F430.773
aF0.01110259
aa(lp260
F430.75
aF0.01002005
aa(lp261
F430.725
aF0.01002005
aa(lp262
F430.7
aF0.01002005
aa(lp263
F430.684
aF0.010100000000000001
aa(lp264
F430.675
aF0.01002005
aa(lp265
F430.661
aF0.01119799
aa(lp266
F430.65
aF0.01002005
aa(lp267
F430.625
aF0.01002005
aa(lp268
F430.619
aF0.01109481
aa(lp269
F430.6
aF0.01002005
aa(lp270
F430.575
aF0.01002005
aa(lp271
F430.557
aF0.01114119
aa(lp272
F430.55
aF0.01002005
aa(lp273
F430.525
aF0.02114604
aa(lp274
F430.515
aF0.196
aa(lp275
F430.514
aF17.25
aa(lp276
F430.5
aF16.6248427
aa(lp277
F430.494
aF0.01119799
aa(lp278
F430.475
aF0.01002005
aa(lp279
F430.45
aF0.01002005
aa(lp280
F430.448
aF0.01109033
aa(lp281
F430.442
aF0.011038
aa(lp282
F430.439
aF0.308
aa(lp283
F430.425
aF0.01002005
aa(lp284
F430.419
aF0.01109154
aa(lp285
F430.414
aF0.011045
aa(lp286
F430.4
aF0.01002005
aa(lp287
F430.399
aF0.26059000000000004
aa(lp288
F430.378
aF0.011054
aa(lp289
F430.375
aF0.01002005
aa(lp290
F430.373
aF0.011109280000000001
aa(lp291
F430.371
aF0.0010500000000000002
aa(lp292
F430.35
aF0.01002005
aa(lp293
F430.339
aF0.01109958
aa(lp294
F430.325
aF0.01002005
aa(lp295
F430.317
aF0.0227
aa(lp296
F430.307
aF0.011039
aa(lp297
F430.3
aF0.01002005
aa(lp298
F430.278
aF0.01108258
aa(lp299
F430.275
aF0.01002005
aa(lp300
F430.25
aF0.01002005
aa(lp301
F430.233
aF0.0926
aa(lp302
F430.23
aF0.010021
aa(lp303
F430.225
aF0.01002005
aa(lp304
F430.212
aF0.011042
aa(lp305
F430.2
aF1.02302005
aa(lp306
F430.187
aF0.013054999999999999
aa(lp307
F430.175
aF0.01002005
aa(lp308
F430.159
aF3.342004
aa(lp309
F430.15
aF0.01002005
aa(lp310
F430.143
aF0.02219368
aa(lp311
F430.129
aF0.001035
aa(lp312
F430.127
aF0.011053
aa(lp313
F430.125
aF0.01002005
aa(lp314
F430.116
aF0.01109481
aa(lp315
F430.1
aF2.01002005
aa(lp316
F430.09
aF2.301
aa(lp317
F430.088
aF0.01119799
aa(lp318
F430.075
aF0.01002005
aa(lp319
F430.052
aF0.01108752
aa(lp320
F430.05
aF0.01002005
aa(lp321
F430.044
aF0.011045
aa(lp322
F430.027
aF0.011049
aa(lp323
F430.025
aF0.03216643
aa(lp324
F430.01
aF0.01046099
aa(lp325
F430.001
aF0.75
aa(lp326
I430
aF0.022044110000000002
aa(lp327
F429.975
aF0.01008051
aa(lp328
F429.972
aF0.01119799
aa(lp329
F429.971
aF0.01109958
aa(lp330
F429.95
aF0.01002005
aa(lp331
F429.942
aF0.011094
aa(lp332
F429.925
aF0.01002005
aa(lp333
F429.9
aF0.01002005
aa(lp334
F429.891
aF0.01109154
aa(lp335
F429.875
aF0.01002005
aa(lp336
F429.85
aF0.02112933
aa(lp337
F429.846
aF0.01114119
aa(lp338
F429.832
aF0.01
aa(lp339
F429.827
aF0.01108258
aa(lp340
F429.825
aF0.01002005
aa(lp341
F429.81
aF0.011033999999999999
aa(lp342
F429.8
aF0.01002005
aa(lp343
F429.775
aF0.01002005
aa(lp344
F429.77
aF0.010059
aa(lp345
F429.75
aF0.01002005
aa(lp346
F429.729
aF0.224
aa(lp347
F429.728
aF3.88
aa(lp348
F429.725
aF0.01002005
aa(lp349
F429.716
aF0.01109109
aa(lp350
F429.708
aF0.01108752
aa(lp351
F429.7
aF0.01002005
aa(lp352
F429.675
aF0.01002005
aa(lp353
F429.65
aF0.01002005
aa(lp354
F429.645
aF0.011035
aa(lp355
F429.631
aF17.25
aa(lp356
F429.628
aF0.448
aaatp357
ba(lp358
g15
(g16
(dp359
g18
g19
(g20
(I0
tp360
g22
tp361
Rp362
(I1
(L1L
tp363
g29
I00
(lp364
g33
atp365
bsg35
Nstp366
Rp367
a(dp368
S'0.14.1'
p369
(dp370
S'axes'
p371
g14
sS'blocks'
p372
(lp373
(dp374
S'mgr_locs'
p375
c__builtin__
slice
p376
(I0
I1
I1
tp377
Rp378
sS'values'
p379
g52
sasstp380
bsb.